; ModuleID = '44/832.c'
source_filename = "44/832.c"
target datalayout = "e-m:e-p270:32:32-p271:32:32-p272:64:64-i64:64-f80:128-n8:16:32:64-S128"
target triple = "x86_64-pc-linux-gnu"

@.str = private unnamed_addr constant [3 x i8] c"%d\00", align 1
@.str.1 = private unnamed_addr constant [4 x i8] c"%d\0A\00", align 1

; Function Attrs: noinline nounwind uwtable
define dso_local i32 @main() #0 {
  %1 = alloca i32, align 4
  %2 = alloca i32, align 4
  %3 = alloca [6 x i32], align 16
  store i32 0, i32* %1, align 4
  store i32 0, i32* %2, align 4
  br label %4

4:                                                ; preds = %18, %0
  %5 = load i32, i32* %2, align 4
  %6 = icmp slt i32 %5, 6
  br i1 %6, label %7, label %21

7:                                                ; preds = %4
  %8 = load i32, i32* %2, align 4
  %9 = sext i32 %8 to i64
  %10 = getelementptr inbounds [6 x i32], [6 x i32]* %3, i64 0, i64 %9
  %11 = call i32 (i8*, ...) @__isoc99_scanf(i8* getelementptr inbounds ([3 x i8], [3 x i8]* @.str, i64 0, i64 0), i32* %10)
  %12 = load i32, i32* %2, align 4
  %13 = sext i32 %12 to i64
  %14 = getelementptr inbounds [6 x i32], [6 x i32]* %3, i64 0, i64 %13
  %15 = load i32, i32* %14, align 4
  %16 = call i32 @reverse(i32 %15)
  %17 = call i32 (i8*, ...) @printf(i8* getelementptr inbounds ([4 x i8], [4 x i8]* @.str.1, i64 0, i64 0), i32 %16)
  br label %18

18:                                               ; preds = %7
  %19 = load i32, i32* %2, align 4
  %20 = add nsw i32 %19, 1
  store i32 %20, i32* %2, align 4
  br label %4

21:                                               ; preds = %4
  ret i32 0
}

declare dso_local i32 @__isoc99_scanf(i8*, ...) #1

declare dso_local i32 @printf(i8*, ...) #1

; Function Attrs: noinline nounwind uwtable
define dso_local i32 @reverse(i32 %0) #0 {
  %2 = alloca i32, align 4
  %3 = alloca i32, align 4
  %4 = alloca i32, align 4
  %5 = alloca i32, align 4
  %6 = alloca i32, align 4
  %7 = alloca i32, align 4
  %8 = alloca i32, align 4
  store i32 %0, i32* %2, align 4
  %9 = load i32, i32* %2, align 4
  %10 = sdiv i32 %9, 10000
  %11 = icmp ne i32 %10, 0
  br i1 %11, label %12, label %65

12:                                               ; preds = %1
  %13 = load i32, i32* %2, align 4
  %14 = sdiv i32 %13, 10000
  store i32 %14, i32* %3, align 4
  %15 = load i32, i32* %2, align 4
  %16 = load i32, i32* %3, align 4
  %17 = mul nsw i32 %16, 10000
  %18 = sub nsw i32 %15, %17
  %19 = sdiv i32 %18, 1000
  store i32 %19, i32* %4, align 4
  %20 = load i32, i32* %2, align 4
  %21 = load i32, i32* %3, align 4
  %22 = mul nsw i32 %21, 10000
  %23 = sub nsw i32 %20, %22
  %24 = load i32, i32* %4, align 4
  %25 = mul nsw i32 %24, 1000
  %26 = sub nsw i32 %23, %25
  %27 = sdiv i32 %26, 100
  store i32 %27, i32* %5, align 4
  %28 = load i32, i32* %2, align 4
  %29 = load i32, i32* %3, align 4
  %30 = mul nsw i32 %29, 10000
  %31 = sub nsw i32 %28, %30
  %32 = load i32, i32* %4, align 4
  %33 = mul nsw i32 %32, 1000
  %34 = sub nsw i32 %31, %33
  %35 = load i32, i32* %5, align 4
  %36 = mul nsw i32 %35, 100
  %37 = sub nsw i32 %34, %36
  %38 = sdiv i32 %37, 10
  store i32 %38, i32* %6, align 4
  %39 = load i32, i32* %2, align 4
  %40 = load i32, i32* %3, align 4
  %41 = mul nsw i32 %40, 10000
  %42 = sub nsw i32 %39, %41
  %43 = load i32, i32* %4, align 4
  %44 = mul nsw i32 %43, 1000
  %45 = sub nsw i32 %42, %44
  %46 = load i32, i32* %5, align 4
  %47 = mul nsw i32 %46, 100
  %48 = sub nsw i32 %45, %47
  %49 = load i32, i32* %6, align 4
  %50 = mul nsw i32 %49, 10
  %51 = sub nsw i32 %48, %50
  store i32 %51, i32* %8, align 4
  %52 = load i32, i32* %8, align 4
  %53 = mul nsw i32 %52, 10000
  %54 = load i32, i32* %6, align 4
  %55 = mul nsw i32 %54, 1000
  %56 = add nsw i32 %53, %55
  %57 = load i32, i32* %5, align 4
  %58 = mul nsw i32 %57, 100
  %59 = add nsw i32 %56, %58
  %60 = load i32, i32* %4, align 4
  %61 = mul nsw i32 %60, 10
  %62 = add nsw i32 %59, %61
  %63 = load i32, i32* %3, align 4
  %64 = add nsw i32 %62, %63
  store i32 %64, i32* %7, align 4
  br label %151

65:                                               ; preds = %1
  %66 = load i32, i32* %2, align 4
  %67 = sdiv i32 %66, 1000
  %68 = icmp ne i32 %67, 0
  br i1 %68, label %69, label %105

69:                                               ; preds = %65
  %70 = load i32, i32* %2, align 4
  %71 = sdiv i32 %70, 1000
  store i32 %71, i32* %3, align 4
  %72 = load i32, i32* %2, align 4
  %73 = load i32, i32* %3, align 4
  %74 = mul nsw i32 %73, 1000
  %75 = sub nsw i32 %72, %74
  %76 = sdiv i32 %75, 100
  store i32 %76, i32* %4, align 4
  %77 = load i32, i32* %2, align 4
  %78 = load i32, i32* %3, align 4
  %79 = mul nsw i32 %78, 1000
  %80 = sub nsw i32 %77, %79
  %81 = load i32, i32* %4, align 4
  %82 = mul nsw i32 %81, 100
  %83 = sub nsw i32 %80, %82
  %84 = sdiv i32 %83, 10
  store i32 %84, i32* %5, align 4
  %85 = load i32, i32* %2, align 4
  %86 = load i32, i32* %3, align 4
  %87 = mul nsw i32 %86, 1000
  %88 = sub nsw i32 %85, %87
  %89 = load i32, i32* %4, align 4
  %90 = mul nsw i32 %89, 100
  %91 = sub nsw i32 %88, %90
  %92 = load i32, i32* %5, align 4
  %93 = mul nsw i32 %92, 10
  %94 = sub nsw i32 %91, %93
  store i32 %94, i32* %6, align 4
  %95 = load i32, i32* %6, align 4
  %96 = mul nsw i32 %95, 1000
  %97 = load i32, i32* %5, align 4
  %98 = mul nsw i32 %97, 100
  %99 = add nsw i32 %96, %98
  %100 = load i32, i32* %4, align 4
  %101 = mul nsw i32 %100, 10
  %102 = add nsw i32 %99, %101
  %103 = load i32, i32* %3, align 4
  %104 = add nsw i32 %102, %103
  store i32 %104, i32* %7, align 4
  br label %150

105:                                              ; preds = %65
  %106 = load i32, i32* %2, align 4
  %107 = sdiv i32 %106, 100
  %108 = icmp ne i32 %107, 0
  br i1 %108, label %109, label %131

109:                                              ; preds = %105
  %110 = load i32, i32* %2, align 4
  %111 = sdiv i32 %110, 100
  store i32 %111, i32* %3, align 4
  %112 = load i32, i32* %2, align 4
  %113 = load i32, i32* %3, align 4
  %114 = mul nsw i32 %113, 100
  %115 = sub nsw i32 %112, %114
  %116 = sdiv i32 %115, 10
  store i32 %116, i32* %4, align 4
  %117 = load i32, i32* %2, align 4
  %118 = load i32, i32* %3, align 4
  %119 = mul nsw i32 %118, 100
  %120 = sub nsw i32 %117, %119
  %121 = load i32, i32* %4, align 4
  %122 = mul nsw i32 %121, 10
  %123 = sub nsw i32 %120, %122
  store i32 %123, i32* %5, align 4
  %124 = load i32, i32* %5, align 4
  %125 = mul nsw i32 %124, 100
  %126 = load i32, i32* %4, align 4
  %127 = mul nsw i32 %126, 10
  %128 = add nsw i32 %125, %127
  %129 = load i32, i32* %3, align 4
  %130 = add nsw i32 %128, %129
  store i32 %130, i32* %7, align 4
  br label %149

131:                                              ; preds = %105
  %132 = load i32, i32* %2, align 4
  %133 = sdiv i32 %132, 10
  %134 = icmp ne i32 %133, 0
  br i1 %134, label %135, label %146

135:                                              ; preds = %131
  %136 = load i32, i32* %2, align 4
  %137 = sdiv i32 %136, 10
  store i32 %137, i32* %3, align 4
  %138 = load i32, i32* %2, align 4
  %139 = load i32, i32* %3, align 4
  %140 = mul nsw i32 %139, 10
  %141 = sub nsw i32 %138, %140
  store i32 %141, i32* %4, align 4
  %142 = load i32, i32* %4, align 4
  %143 = mul nsw i32 %142, 10
  %144 = load i32, i32* %3, align 4
  %145 = add nsw i32 %143, %144
  store i32 %145, i32* %7, align 4
  br label %148

146:                                              ; preds = %131
  %147 = load i32, i32* %2, align 4
  store i32 %147, i32* %7, align 4
  br label %148

148:                                              ; preds = %146, %135
  br label %149

149:                                              ; preds = %148, %109
  br label %150

150:                                              ; preds = %149, %69
  br label %151

151:                                              ; preds = %150, %12
  %152 = load i32, i32* %7, align 4
  ret i32 %152
}


!llvm.module.flags = !{!0}
!llvm.ident = !{!1}

!0 = !{i32 1, !"wchar_size", i32 4}
!1 = !{!"clang version 10.0.0-4ubuntu1 "}
